target datalayout = "e-m:e-p270:32:32-p271:32:32-p272:64:64-i64:64-i128:128-f80:128-n8:16:32:64-S128"
target triple = "x86_64-pc-linux-gnu"

%struct._e_addr_resolve = type { i8, i8, i8, i8, i8, i8, i8, i8, i8 }
%struct.serv_port = type { ptr, ptr, ptr, ptr, ptr }

@gbl_resolv_flags = global %struct._e_addr_resolve { i8 1, i8 0, i8 0, i8 1, i8 0, i8 1, i8 0, i8 0, i8 1 }, align 1
@addr_resolv_scope = internal global ptr null, align 8
@serv_port_hashtable = internal global ptr null, align 8
@.str = private unnamed_addr constant [3 x i8] c"%u\00", align 1

; Function Attrs: null_pointer_is_valid sspstrong uwtable
define ptr @serv_name_lookup(i32 noundef %0, i32 noundef %1) #3 {
  %3 = alloca ptr, align 8
  %4 = alloca i32, align 4
  %5 = alloca i32, align 4
  %6 = alloca ptr, align 8
  %7 = alloca ptr, align 8
  %8 = alloca i32, align 4
  store i32 %0, ptr %4, align 4
  store i32 %1, ptr %5, align 4
  call void @llvm.lifetime.start.p0(i64 8, ptr %6) #16
  store ptr null, ptr %6, align 8
  call void @llvm.lifetime.start.p0(i64 8, ptr %7) #16
  %9 = load i32, ptr %4, align 4
  %10 = load i32, ptr %5, align 4
  %11 = call ptr @_serv_name_lookup(i32 noundef %9, i32 noundef %10, ptr noundef %6)
  store ptr %11, ptr %7, align 8
  %12 = load ptr, ptr %7, align 8
  %13 = icmp ne ptr %12, null
  br i1 %13, label %14, label %16

14:                                               ; preds = %2
  %15 = load ptr, ptr %7, align 8
  store ptr %15, ptr %3, align 8
  store i32 1, ptr %8, align 4
  br label %43

16:                                               ; preds = %2
  %17 = load ptr, ptr %6, align 8
  %18 = icmp eq ptr %17, null
  br i1 %18, label %19, label %28

19:                                               ; preds = %16
  %20 = load ptr, ptr @addr_resolv_scope, align 8
  %21 = call noalias ptr @wmem_alloc0(ptr noundef %20, i64 noundef 40) #19
  store ptr %21, ptr %6, align 8
  %22 = load ptr, ptr @serv_port_hashtable, align 8
  %23 = load i32, ptr %5, align 4
  %24 = zext i32 %23 to i64
  %25 = inttoptr i64 %24 to ptr
  %26 = load ptr, ptr %6, align 8
  %27 = call ptr @wmem_map_insert(ptr noundef %22, ptr noundef %25, ptr noundef %26)
  br label %28

28:                                               ; preds = %19, %16
  %29 = load ptr, ptr %6, align 8
  %30 = getelementptr inbounds nuw %struct.serv_port, ptr %29, i32 0, i32 4
  %31 = load ptr, ptr %30, align 8
  %32 = icmp eq ptr %31, null
  br i1 %32, label %33, label %39

33:                                               ; preds = %28
  %34 = load ptr, ptr @addr_resolv_scope, align 8
  %35 = load i32, ptr %5, align 4
  %36 = call noalias ptr (ptr, ptr, ...) @wmem_strdup_printf(ptr noundef %34, ptr noundef @.str, i32 noundef %35)
  %37 = load ptr, ptr %6, align 8
  %38 = getelementptr inbounds nuw %struct.serv_port, ptr %37, i32 0, i32 4
  store ptr %36, ptr %38, align 8
  br label %39

39:                                               ; preds = %33, %28
  %40 = load ptr, ptr %6, align 8
  %41 = getelementptr inbounds nuw %struct.serv_port, ptr %40, i32 0, i32 4
  %42 = load ptr, ptr %41, align 8
  store ptr %42, ptr %3, align 8
  store i32 1, ptr %8, align 4
  br label %43

43:                                               ; preds = %39, %14
  call void @llvm.lifetime.end.p0(i64 8, ptr %7) #16
  call void @llvm.lifetime.end.p0(i64 8, ptr %6) #16
  %44 = load ptr, ptr %3, align 8
  ret ptr %44
}

; Function Attrs: null_pointer_is_valid sspstrong uwtable
define internal ptr @wmem_utoa(ptr noundef %0, i32 noundef %1) #3 {
  %3 = alloca ptr, align 8
  %4 = alloca i32, align 4
  %5 = alloca ptr, align 8
  store ptr %0, ptr %3, align 8
  store i32 %1, ptr %4, align 4
  call void @llvm.lifetime.start.p0(i64 8, ptr %5) #16
  %6 = load ptr, ptr %3, align 8
  %7 = call noalias ptr @wmem_alloc(ptr noundef %6, i64 noundef 64) #19
  store ptr %7, ptr %5, align 8
  %8 = load i32, ptr %4, align 4
  %9 = load ptr, ptr %5, align 8
  call void @uint32_to_str_buf(i32 noundef %8, ptr noundef %9, i64 noundef 64)
  %10 = load ptr, ptr %5, align 8
  call void @llvm.lifetime.end.p0(i64 8, ptr %5) #16
  ret ptr %10
}

; Function Attrs: null_pointer_is_valid sspstrong uwtable
define ptr @tcp_port_to_display(ptr noundef %0, i32 noundef %1) #3 {
  %3 = alloca ptr, align 8
  %4 = alloca ptr, align 8
  %5 = alloca i32, align 4
  store ptr %0, ptr %4, align 8
  store i32 %1, ptr %5, align 4
  %6 = load i8, ptr getelementptr inbounds nuw (%struct._e_addr_resolve, ptr @gbl_resolv_flags, i32 0, i32 2), align 1, !range !8, !noundef !9
  %7 = trunc i8 %6 to i1
  br i1 %7, label %12, label %8

8:                                                ; preds = %2
  %9 = load ptr, ptr %4, align 8
  %10 = load i32, ptr %5, align 4
  %11 = call ptr @wmem_utoa(ptr noundef %9, i32 noundef %10)
  store ptr %11, ptr %3, align 8
  br label %17

12:                                               ; preds = %2
  %13 = load ptr, ptr %4, align 8
  %14 = load i32, ptr %5, align 4
  %15 = call ptr @serv_name_lookup(i32 noundef 2, i32 noundef %14)
  %16 = call noalias ptr @wmem_strdup(ptr noundef %13, ptr noundef %15)
  store ptr %16, ptr %3, align 8
  br label %17

17:                                               ; preds = %12, %8
  %18 = load ptr, ptr %3, align 8
  ret ptr %18
}